target datalayout = "e-m:e-p270:32:32-p271:32:32-p272:64:64-i64:64-i128:128-f80:128-n8:16:32:64-S128"
target triple = "x86_64-pc-linux-gnu"

%struct.slurmdb_assoc_rec = type { ptr, ptr, ptr, ptr, ptr, ptr, ptr, i32, i32, i32, i32, i32, ptr, ptr, ptr, ptr, ptr, ptr, i32, i32, i16, ptr, ptr, i32, i32, i32, ptr, ptr, ptr, ptr, ptr, ptr, ptr, ptr, i32, i32, ptr, i32, ptr, i32, ptr, i32, i32, ptr, ptr, ptr }
%struct.slurmdb_add_assoc_cond_t = type { ptr, %struct.slurmdb_assoc_rec, ptr, ptr, ptr, ptr, ptr }

; Function Attrs: nounwind uwtable
define dso_local void @slurmdb_init_assoc_rec(ptr noundef %0, i1 noundef zeroext %1) #0 {
  %3 = alloca ptr, align 8
  %4 = alloca i8, align 1
  store ptr %0, ptr %3, align 8
  %5 = zext i1 %1 to i8
  store i8 %5, ptr %4, align 1
  %6 = load ptr, ptr %3, align 8
  %7 = icmp ne ptr %6, null
  br i1 %7, label %9, label %8

8:                                                ; preds = %2
  br label %42

9:                                                ; preds = %2
  %10 = load i8, ptr %4, align 1, !range !12, !noundef !13
  %11 = trunc i8 %10 to i1
  br i1 %11, label %12, label %14

12:                                               ; preds = %9
  %13 = load ptr, ptr %3, align 8
  call void @slurmdb_free_assoc_rec_members(ptr noundef %13)
  br label %14

14:                                               ; preds = %12, %9
  %15 = load ptr, ptr %3, align 8
  call void @llvm.memset.p0.i64(ptr align 8 %15, i8 0, i64 320, i1 false)
  %16 = load ptr, ptr %3, align 8
  %17 = getelementptr inbounds nuw %struct.slurmdb_assoc_rec, ptr %16, i32 0, i32 7
  store i32 -2, ptr %17, align 8
  %18 = load ptr, ptr %3, align 8
  %19 = getelementptr inbounds nuw %struct.slurmdb_assoc_rec, ptr %18, i32 0, i32 20
  store i16 -2, ptr %19, align 8
  %20 = load ptr, ptr %3, align 8
  %21 = getelementptr inbounds nuw %struct.slurmdb_assoc_rec, ptr %20, i32 0, i32 9
  store i32 -2, ptr %21, align 8
  %22 = load ptr, ptr %3, align 8
  %23 = getelementptr inbounds nuw %struct.slurmdb_assoc_rec, ptr %22, i32 0, i32 10
  store i32 -2, ptr %23, align 4
  %24 = load ptr, ptr %3, align 8
  %25 = getelementptr inbounds nuw %struct.slurmdb_assoc_rec, ptr %24, i32 0, i32 11
  store i32 -2, ptr %25, align 8
  %26 = load ptr, ptr %3, align 8
  %27 = getelementptr inbounds nuw %struct.slurmdb_assoc_rec, ptr %26, i32 0, i32 18
  store i32 -2, ptr %27, align 8
  %28 = load ptr, ptr %3, align 8
  %29 = getelementptr inbounds nuw %struct.slurmdb_assoc_rec, ptr %28, i32 0, i32 23
  store i32 -2, ptr %29, align 8
  %30 = load ptr, ptr %3, align 8
  %31 = getelementptr inbounds nuw %struct.slurmdb_assoc_rec, ptr %30, i32 0, i32 24
  store i32 -2, ptr %31, align 4
  %32 = load ptr, ptr %3, align 8
  %33 = getelementptr inbounds nuw %struct.slurmdb_assoc_rec, ptr %32, i32 0, i32 35
  store i32 -2, ptr %33, align 4
  %34 = load ptr, ptr %3, align 8
  %35 = getelementptr inbounds nuw %struct.slurmdb_assoc_rec, ptr %34, i32 0, i32 25
  store i32 -2, ptr %35, align 8
  %36 = load ptr, ptr %3, align 8
  %37 = getelementptr inbounds nuw %struct.slurmdb_assoc_rec, ptr %36, i32 0, i32 34
  store i32 -2, ptr %37, align 8
  %38 = load ptr, ptr %3, align 8
  %39 = getelementptr inbounds nuw %struct.slurmdb_assoc_rec, ptr %38, i32 0, i32 39
  store i32 -2, ptr %39, align 8
  %40 = load ptr, ptr %3, align 8
  %41 = getelementptr inbounds nuw %struct.slurmdb_assoc_rec, ptr %40, i32 0, i32 41
  store i32 -2, ptr %41, align 8
  br label %42

42:                                               ; preds = %14, %8
  ret void
}

; Function Attrs: nounwind uwtable
define dso_local void @slurmdb_init_add_assoc_cond(ptr noundef %0, i1 noundef zeroext %1) #0 {
  %3 = alloca ptr, align 8
  %4 = alloca i8, align 1
  store ptr %0, ptr %3, align 8
  %5 = zext i1 %1 to i8
  store i8 %5, ptr %4, align 1
  %6 = load ptr, ptr %3, align 8
  %7 = icmp ne ptr %6, null
  br i1 %7, label %9, label %8

8:                                                ; preds = %2
  br label %20

9:                                                ; preds = %2
  %10 = load i8, ptr %4, align 1, !range !12, !noundef !13
  %11 = trunc i8 %10 to i1
  br i1 %11, label %12, label %14

12:                                               ; preds = %9
  %13 = load ptr, ptr %3, align 8
  call void @slurmdb_free_add_assoc_cond_members(ptr noundef %13)
  br label %14

14:                                               ; preds = %12, %9
  %15 = load ptr, ptr %3, align 8
  call void @llvm.memset.p0.i64(ptr align 8 %15, i8 0, i64 368, i1 false)
  %16 = load ptr, ptr %3, align 8
  %17 = getelementptr inbounds nuw %struct.slurmdb_add_assoc_cond_t, ptr %16, i32 0, i32 1
  %18 = load i8, ptr %4, align 1, !range !12, !noundef !13
  %19 = trunc i8 %18 to i1
  call void @slurmdb_init_assoc_rec(ptr noundef %17, i1 noundef zeroext %19)
  br label %20

20:                                               ; preds = %14, %8
  ret void
}