; Function Attrs: nounwind uwtable
define dso_local void @slurmdb_init_add_assoc_cond(ptr noundef %0, i1 noundef zeroext %1) local_unnamed_addr #0 {
  %.not = icmp eq ptr %0, null
  br i1 %.not, label %22, label %3

3:                                                ; preds = %2
  br i1 %1, label %6, label %4

4:                                                ; preds = %3
  tail call void @llvm.memset.p0.i64(ptr noundef nonnull align 8 dereferenceable(368) %0, i8 0, i64 368, i1 false)
  %5 = getelementptr inbounds nuw i8, ptr %0, i64 8
  br label %slurmdb_init_assoc_rec.exit

6:                                                ; preds = %3
  tail call void @slurmdb_free_add_assoc_cond_members(ptr noundef nonnull %0)
  tail call void @llvm.memset.p0.i64(ptr noundef nonnull align 8 dereferenceable(368) %0, i8 0, i64 368, i1 false)
  %7 = getelementptr inbounds nuw i8, ptr %0, i64 8
  tail call void @slurmdb_free_assoc_rec_members(ptr noundef nonnull %7)
  br label %slurmdb_init_assoc_rec.exit

slurmdb_init_assoc_rec.exit:                      ; preds = %4, %6
  %8 = phi ptr [ %5, %4 ], [ %7, %6 ]
  tail call void @llvm.memset.p0.i64(ptr noundef nonnull align 8 dereferenceable(320) %8, i8 0, i64 320, i1 false)
  %9 = getelementptr inbounds nuw i8, ptr %0, i64 64
  store i32 -2, ptr %9, align 8
  %10 = getelementptr inbounds nuw i8, ptr %0, i64 144
  store i16 -2, ptr %10, align 8
  %11 = getelementptr inbounds nuw i8, ptr %0, i64 72
  store i32 -2, ptr %11, align 8
  %12 = getelementptr inbounds nuw i8, ptr %0, i64 76
  store i32 -2, ptr %12, align 4
  %13 = getelementptr inbounds nuw i8, ptr %0, i64 80
  store i32 -2, ptr %13, align 8
  %14 = getelementptr inbounds nuw i8, ptr %0, i64 136
  store i32 -2, ptr %14, align 8
  %15 = getelementptr inbounds nuw i8, ptr %0, i64 168
  store i32 -2, ptr %15, align 8
  %16 = getelementptr inbounds nuw i8, ptr %0, i64 172
  store i32 -2, ptr %16, align 4
  %17 = getelementptr inbounds nuw i8, ptr %0, i64 252
  store i32 -2, ptr %17, align 4
  %18 = getelementptr inbounds nuw i8, ptr %0, i64 176
  store i32 -2, ptr %18, align 8
  %19 = getelementptr inbounds nuw i8, ptr %0, i64 248
  store i32 -2, ptr %19, align 8
  %20 = getelementptr inbounds nuw i8, ptr %0, i64 280
  store i32 -2, ptr %20, align 8
  %21 = getelementptr inbounds nuw i8, ptr %0, i64 296
  store i32 -2, ptr %21, align 8
  br label %22

22:                                               ; preds = %2, %slurmdb_init_assoc_rec.exit
  ret void
}